target datalayout = "e-m:e-p270:32:32-p271:32:32-p272:64:64-i64:64-i128:128-f80:128-n8:16:32:64-S128"
target triple = "x86_64-pc-linux-gnu"

%struct.ssl_cipher_preference_list_st = type { ptr, ptr }

@stderr = external global ptr, align 8
@.str.26 = private unnamed_addr constant [4 x i8] c"\09[\0A\00", align 1
@.str.27 = private unnamed_addr constant [2 x i8] c"\09\00", align 1
@.str.28 = private unnamed_addr constant [3 x i8] c"  \00", align 1
@.str.29 = private unnamed_addr constant [4 x i8] c"%s\0A\00", align 1
@.str.30 = private unnamed_addr constant [4 x i8] c"\09]\0A\00", align 1

; Function Attrs: mustprogress uwtable
define internal void @_ZL25PrintCipherPreferenceListP29ssl_cipher_preference_list_st(ptr noundef %0) #4 {
  %2 = alloca ptr, align 8
  %3 = alloca i8, align 1
  %4 = alloca i64, align 8
  %5 = alloca ptr, align 8
  store ptr %0, ptr %2, align 8, !tbaa !116
  call void @llvm.lifetime.start.p0(i64 1, ptr %3) #6
  store i8 0, ptr %3, align 1, !tbaa !89
  call void @llvm.lifetime.start.p0(i64 8, ptr %4) #6
  store i64 0, ptr %4, align 8, !tbaa !45
  br label %6

6:                                                ; preds = %60, %1
  %7 = load i64, ptr %4, align 8, !tbaa !45
  %8 = load ptr, ptr %2, align 8, !tbaa !116
  %9 = getelementptr inbounds nuw %struct.ssl_cipher_preference_list_st, ptr %8, i32 0, i32 0
  %10 = load ptr, ptr %9, align 8, !tbaa !103
  %11 = call i64 @sk_num(ptr noundef %10)
  %12 = icmp ult i64 %7, %11
  br i1 %12, label %14, label %13

13:                                               ; preds = %6
  call void @llvm.lifetime.end.p0(i64 8, ptr %4) #6
  br label %63

14:                                               ; preds = %6
  call void @llvm.lifetime.start.p0(i64 8, ptr %5) #6
  %15 = load ptr, ptr %2, align 8, !tbaa !116
  %16 = getelementptr inbounds nuw %struct.ssl_cipher_preference_list_st, ptr %15, i32 0, i32 0
  %17 = load ptr, ptr %16, align 8, !tbaa !103
  %18 = load i64, ptr %4, align 8, !tbaa !45
  %19 = call ptr @sk_value(ptr noundef %17, i64 noundef %18)
  store ptr %19, ptr %5, align 8, !tbaa !105
  %20 = load i8, ptr %3, align 1, !tbaa !89, !range !91, !noundef !92
  %21 = trunc i8 %20 to i1
  br i1 %21, label %33, label %22

22:                                               ; preds = %14
  %23 = load ptr, ptr %2, align 8, !tbaa !116
  %24 = getelementptr inbounds nuw %struct.ssl_cipher_preference_list_st, ptr %23, i32 0, i32 1
  %25 = load ptr, ptr %24, align 8, !tbaa !107
  %26 = load i64, ptr %4, align 8, !tbaa !45
  %27 = getelementptr inbounds nuw i8, ptr %25, i64 %26
  %28 = load i8, ptr %27, align 1, !tbaa !18
  %29 = icmp ne i8 %28, 0
  br i1 %29, label %30, label %33

30:                                               ; preds = %22
  %31 = load ptr, ptr @stderr, align 8, !tbaa !40
  %32 = call i32 (ptr, ptr, ...) @fprintf(ptr noundef %31, ptr noundef @.str.26) #6
  store i8 1, ptr %3, align 1, !tbaa !89
  br label %33

33:                                               ; preds = %30, %22, %14
  %34 = load ptr, ptr @stderr, align 8, !tbaa !40
  %35 = call i32 (ptr, ptr, ...) @fprintf(ptr noundef %34, ptr noundef @.str.27) #6
  %36 = load i8, ptr %3, align 1, !tbaa !89, !range !91, !noundef !92
  %37 = trunc i8 %36 to i1
  br i1 %37, label %38, label %41

38:                                               ; preds = %33
  %39 = load ptr, ptr @stderr, align 8, !tbaa !40
  %40 = call i32 (ptr, ptr, ...) @fprintf(ptr noundef %39, ptr noundef @.str.28) #6
  br label %41

41:                                               ; preds = %38, %33
  %42 = load ptr, ptr @stderr, align 8, !tbaa !40
  %43 = load ptr, ptr %5, align 8, !tbaa !105
  %44 = call ptr @SSL_CIPHER_get_name(ptr noundef %43)
  %45 = call i32 (ptr, ptr, ...) @fprintf(ptr noundef %42, ptr noundef @.str.29, ptr noundef %44) #6
  %46 = load i8, ptr %3, align 1, !tbaa !89, !range !91, !noundef !92
  %47 = trunc i8 %46 to i1
  br i1 %47, label %48, label %59

48:                                               ; preds = %41
  %49 = load ptr, ptr %2, align 8, !tbaa !116
  %50 = getelementptr inbounds nuw %struct.ssl_cipher_preference_list_st, ptr %49, i32 0, i32 1
  %51 = load ptr, ptr %50, align 8, !tbaa !107
  %52 = load i64, ptr %4, align 8, !tbaa !45
  %53 = getelementptr inbounds nuw i8, ptr %51, i64 %52
  %54 = load i8, ptr %53, align 1, !tbaa !18
  %55 = icmp ne i8 %54, 0
  br i1 %55, label %59, label %56

56:                                               ; preds = %48
  %57 = load ptr, ptr @stderr, align 8, !tbaa !40
  %58 = call i32 (ptr, ptr, ...) @fprintf(ptr noundef %57, ptr noundef @.str.30) #6
  store i8 0, ptr %3, align 1, !tbaa !89
  br label %59

59:                                               ; preds = %56, %48, %41
  call void @llvm.lifetime.end.p0(i64 8, ptr %5) #6
  br label %60

60:                                               ; preds = %59
  %61 = load i64, ptr %4, align 8, !tbaa !45
  %62 = add i64 %61, 1
  store i64 %62, ptr %4, align 8, !tbaa !45
  br label %6, !llvm.loop !117

63:                                               ; preds = %13
  call void @llvm.lifetime.end.p0(i64 1, ptr %3) #6
  ret void
}