; Function Attrs: mustprogress norecurse uwtable
define internal fastcc void @_ZL25PrintCipherPreferenceListP29ssl_cipher_preference_list_st(ptr noundef readonly captures(none) %0) unnamed_addr #4 {
  %2 = load ptr, ptr %0, align 8, !tbaa !43
  %3 = tail call i64 @sk_num(ptr noundef %2)
  %.not19 = icmp eq i64 %3, 0
  br i1 %.not19, label %._crit_edge, label %.lr.ph

.lr.ph:                                           ; preds = %1
  %4 = getelementptr inbounds nuw i8, ptr %0, i64 8
  br label %5

._crit_edge:                                      ; preds = %31, %1
  ret void

5:                                                ; preds = %.lr.ph, %31
  %.018 = phi i1 [ false, %.lr.ph ], [ %.2, %31 ]
  %.01217 = phi i64 [ 0, %.lr.ph ], [ %32, %31 ]
  %6 = load ptr, ptr %0, align 8, !tbaa !43
  %7 = tail call ptr @sk_value(ptr noundef %6, i64 noundef %.01217)
  br i1 %.018, label %15, label %8

8:                                                ; preds = %5
  %9 = load ptr, ptr %4, align 8, !tbaa !51
  %10 = getelementptr inbounds nuw i8, ptr %9, i64 %.01217
  %11 = load i8, ptr %10, align 1, !tbaa !52
  %.not = icmp eq i8 %11, 0
  %12 = load ptr, ptr @stderr, align 8, !tbaa !20
  br i1 %.not, label %.critedge, label %13

13:                                               ; preds = %8
  %14 = tail call i64 @fwrite(ptr nonnull @.str.26, i64 3, i64 1, ptr %12) #29
  br label %15

15:                                               ; preds = %5, %13
  %16 = load ptr, ptr @stderr, align 8, !tbaa !20
  %fputc15 = tail call i32 @fputc(i32 9, ptr %16)
  %17 = load ptr, ptr @stderr, align 8, !tbaa !20
  %18 = tail call i64 @fwrite(ptr nonnull @.str.28, i64 2, i64 1, ptr %17) #29
  %19 = load ptr, ptr @stderr, align 8, !tbaa !20
  %20 = tail call ptr @SSL_CIPHER_get_name(ptr noundef %7)
  %21 = tail call i32 (ptr, ptr, ...) @fprintf(ptr noundef %19, ptr noundef nonnull @.str.29, ptr noundef %20) #27
  %22 = load ptr, ptr %4, align 8, !tbaa !51
  %23 = getelementptr inbounds nuw i8, ptr %22, i64 %.01217
  %24 = load i8, ptr %23, align 1, !tbaa !52
  %.not13 = icmp eq i8 %24, 0
  br i1 %.not13, label %25, label %31

25:                                               ; preds = %15
  %26 = load ptr, ptr @stderr, align 8, !tbaa !20
  %27 = tail call i64 @fwrite(ptr nonnull @.str.30, i64 3, i64 1, ptr %26) #29
  br label %31

.critedge:                                        ; preds = %8
  %fputc = tail call i32 @fputc(i32 9, ptr %12)
  %28 = load ptr, ptr @stderr, align 8, !tbaa !20
  %29 = tail call ptr @SSL_CIPHER_get_name(ptr noundef %7)
  %30 = tail call i32 (ptr, ptr, ...) @fprintf(ptr noundef %28, ptr noundef nonnull @.str.29, ptr noundef %29) #27
  br label %31

31:                                               ; preds = %.critedge, %25, %15
  %.2 = phi i1 [ true, %15 ], [ false, %25 ], [ false, %.critedge ]
  %32 = add nuw i64 %.01217, 1
  %33 = load ptr, ptr %0, align 8, !tbaa !43
  %34 = tail call i64 @sk_num(ptr noundef %33)
  %35 = icmp ult i64 %32, %34
  br i1 %35, label %5, label %._crit_edge, !llvm.loop !115
}